target datalayout = "e-m:e-p270:32:32-p271:32:32-p272:64:64-i64:64-i128:128-f80:128-n8:16:32:64-S128"
target triple = "x86_64-pc-linux-gnu"

%struct.yy_buffer_state = type { ptr, ptr, ptr, i32, i32, i32, i32, i32, i32, i32, i32, i32 }

@.str.2 = private unnamed_addr constant [42 x i8] c"out of dynamic memory in yy_scan_buffer()\00", align 1
@.str.3 = private unnamed_addr constant [41 x i8] c"out of dynamic memory in yy_scan_bytes()\00", align 1
@.str.4 = private unnamed_addr constant [30 x i8] c"bad buffer in yy_scan_bytes()\00", align 1

; Function Attrs: nounwind uwtable
define ptr @H5LTyy_scan_buffer(ptr noundef %0, i64 noundef %1) #0 {
  %3 = alloca ptr, align 8
  %4 = alloca ptr, align 8
  %5 = alloca i64, align 8
  %6 = alloca ptr, align 8
  store ptr %0, ptr %4, align 8
  store i64 %1, ptr %5, align 8
  %7 = load i64, ptr %5, align 8
  %8 = icmp ult i64 %7, 2
  br i1 %8, label %25, label %9

9:                                                ; preds = %2
  %10 = load ptr, ptr %4, align 8
  %11 = load i64, ptr %5, align 8
  %12 = sub i64 %11, 2
  %13 = getelementptr inbounds i8, ptr %10, i64 %12
  %14 = load i8, ptr %13, align 1
  %15 = sext i8 %14 to i32
  %16 = icmp ne i32 %15, 0
  br i1 %16, label %25, label %17

17:                                               ; preds = %9
  %18 = load ptr, ptr %4, align 8
  %19 = load i64, ptr %5, align 8
  %20 = sub i64 %19, 1
  %21 = getelementptr inbounds i8, ptr %18, i64 %20
  %22 = load i8, ptr %21, align 1
  %23 = sext i8 %22 to i32
  %24 = icmp ne i32 %23, 0
  br i1 %24, label %25, label %26

25:                                               ; preds = %17, %9, %2
  store ptr null, ptr %3, align 8
  br label %61

26:                                               ; preds = %17
  %27 = call ptr @H5LTyyalloc(i64 noundef 64)
  store ptr %27, ptr %6, align 8
  %28 = load ptr, ptr %6, align 8
  %29 = icmp ne ptr %28, null
  br i1 %29, label %31, label %30

30:                                               ; preds = %26
  call void @yy_fatal_error(ptr noundef @.str.2) #12
  unreachable

31:                                               ; preds = %26
  %32 = load i64, ptr %5, align 8
  %33 = sub i64 %32, 2
  %34 = trunc i64 %33 to i32
  %35 = load ptr, ptr %6, align 8
  %36 = getelementptr inbounds %struct.yy_buffer_state, ptr %35, i32 0, i32 3
  store i32 %34, ptr %36, align 8
  %37 = load ptr, ptr %4, align 8
  %38 = load ptr, ptr %6, align 8
  %39 = getelementptr inbounds %struct.yy_buffer_state, ptr %38, i32 0, i32 1
  store ptr %37, ptr %39, align 8
  %40 = load ptr, ptr %6, align 8
  %41 = getelementptr inbounds %struct.yy_buffer_state, ptr %40, i32 0, i32 2
  store ptr %37, ptr %41, align 8
  %42 = load ptr, ptr %6, align 8
  %43 = getelementptr inbounds %struct.yy_buffer_state, ptr %42, i32 0, i32 5
  store i32 0, ptr %43, align 8
  %44 = load ptr, ptr %6, align 8
  %45 = getelementptr inbounds %struct.yy_buffer_state, ptr %44, i32 0, i32 0
  store ptr null, ptr %45, align 8
  %46 = load ptr, ptr %6, align 8
  %47 = getelementptr inbounds %struct.yy_buffer_state, ptr %46, i32 0, i32 3
  %48 = load i32, ptr %47, align 8
  %49 = load ptr, ptr %6, align 8
  %50 = getelementptr inbounds %struct.yy_buffer_state, ptr %49, i32 0, i32 4
  store i32 %48, ptr %50, align 4
  %51 = load ptr, ptr %6, align 8
  %52 = getelementptr inbounds %struct.yy_buffer_state, ptr %51, i32 0, i32 6
  store i32 0, ptr %52, align 4
  %53 = load ptr, ptr %6, align 8
  %54 = getelementptr inbounds %struct.yy_buffer_state, ptr %53, i32 0, i32 7
  store i32 1, ptr %54, align 8
  %55 = load ptr, ptr %6, align 8
  %56 = getelementptr inbounds %struct.yy_buffer_state, ptr %55, i32 0, i32 10
  store i32 0, ptr %56, align 4
  %57 = load ptr, ptr %6, align 8
  %58 = getelementptr inbounds %struct.yy_buffer_state, ptr %57, i32 0, i32 11
  store i32 0, ptr %58, align 8
  %59 = load ptr, ptr %6, align 8
  call void @H5LTyy_switch_to_buffer(ptr noundef %59)
  %60 = load ptr, ptr %6, align 8
  store ptr %60, ptr %3, align 8
  br label %61

61:                                               ; preds = %31, %25
  %62 = load ptr, ptr %3, align 8
  ret ptr %62
}

; Function Attrs: nounwind uwtable
define ptr @H5LTyyalloc(i64 noundef %0) #0 {
  %2 = alloca i64, align 8
  store i64 %0, ptr %2, align 8
  %3 = load i64, ptr %2, align 8
  %4 = call noalias ptr @malloc(i64 noundef %3) #16
  ret ptr %4
}

; Function Attrs: nounwind uwtable
define ptr @H5LTyy_scan_bytes(ptr noundef %0, i32 noundef %1) #0 {
  %3 = alloca ptr, align 8
  %4 = alloca i32, align 4
  %5 = alloca ptr, align 8
  %6 = alloca ptr, align 8
  %7 = alloca i64, align 8
  %8 = alloca i32, align 4
  store ptr %0, ptr %3, align 8
  store i32 %1, ptr %4, align 4
  %9 = load i32, ptr %4, align 4
  %10 = add nsw i32 %9, 2
  %11 = sext i32 %10 to i64
  store i64 %11, ptr %7, align 8
  %12 = load i64, ptr %7, align 8
  %13 = call ptr @H5LTyyalloc(i64 noundef %12)
  store ptr %13, ptr %6, align 8
  %14 = load ptr, ptr %6, align 8
  %15 = icmp ne ptr %14, null
  br i1 %15, label %17, label %16

16:                                               ; preds = %2
  call void @yy_fatal_error(ptr noundef @.str.3) #12
  unreachable

17:                                               ; preds = %2
  store i32 0, ptr %8, align 4
  br label %18

18:                                               ; preds = %32, %17
  %19 = load i32, ptr %8, align 4
  %20 = load i32, ptr %4, align 4
  %21 = icmp slt i32 %19, %20
  br i1 %21, label %22, label %35

22:                                               ; preds = %18
  %23 = load ptr, ptr %3, align 8
  %24 = load i32, ptr %8, align 4
  %25 = sext i32 %24 to i64
  %26 = getelementptr inbounds i8, ptr %23, i64 %25
  %27 = load i8, ptr %26, align 1
  %28 = load ptr, ptr %6, align 8
  %29 = load i32, ptr %8, align 4
  %30 = sext i32 %29 to i64
  %31 = getelementptr inbounds i8, ptr %28, i64 %30
  store i8 %27, ptr %31, align 1
  br label %32

32:                                               ; preds = %22
  %33 = load i32, ptr %8, align 4
  %34 = add nsw i32 %33, 1
  store i32 %34, ptr %8, align 4
  br label %18

35:                                               ; preds = %18
  %36 = load ptr, ptr %6, align 8
  %37 = load i32, ptr %4, align 4
  %38 = add nsw i32 %37, 1
  %39 = sext i32 %38 to i64
  %40 = getelementptr inbounds i8, ptr %36, i64 %39
  store i8 0, ptr %40, align 1
  %41 = load ptr, ptr %6, align 8
  %42 = load i32, ptr %4, align 4
  %43 = sext i32 %42 to i64
  %44 = getelementptr inbounds i8, ptr %41, i64 %43
  store i8 0, ptr %44, align 1
  %45 = load ptr, ptr %6, align 8
  %46 = load i64, ptr %7, align 8
  %47 = call ptr @H5LTyy_scan_buffer(ptr noundef %45, i64 noundef %46)
  store ptr %47, ptr %5, align 8
  %48 = load ptr, ptr %5, align 8
  %49 = icmp ne ptr %48, null
  br i1 %49, label %51, label %50

50:                                               ; preds = %35
  call void @yy_fatal_error(ptr noundef @.str.4) #12
  unreachable

51:                                               ; preds = %35
  %52 = load ptr, ptr %5, align 8
  %53 = getelementptr inbounds %struct.yy_buffer_state, ptr %52, i32 0, i32 5
  store i32 1, ptr %53, align 8
  %54 = load ptr, ptr %5, align 8
  ret ptr %54
}